; Function Attrs: null_pointer_is_valid sspstrong uwtable
define void @add_ber_encoded_label(ptr noundef %0, ptr noundef readnone captures(none) %1, ptr noundef %2) local_unnamed_addr #0 {
  %4 = load i32, ptr @hf_ber_encoding_boiler_plate, align 4
  %5 = tail call ptr @proto_tree_add_item(ptr noundef %2, i32 noundef %4, ptr noundef %0, i32 noundef 0, i32 noundef -1, i32 noundef 0)
  %.not.i = icmp eq ptr %5, null
  br i1 %.not.i, label %proto_item_set_generated.exit, label %6

6:                                                ; preds = %3
  %7 = getelementptr inbounds nuw i8, ptr %5, i64 40
  %8 = load ptr, ptr %7, align 8
  %.not5.i = icmp eq ptr %8, null
  br i1 %.not5.i, label %proto_item_set_generated.exit, label %9

9:                                                ; preds = %6
  %10 = getelementptr inbounds nuw i8, ptr %8, i64 28
  %11 = load i32, ptr %10, align 4
  %12 = or i32 %11, 2
  store i32 %12, ptr %10, align 4
  br label %proto_item_set_generated.exit

proto_item_set_generated.exit:                    ; preds = %3, %6, %9
  ret void
}